target datalayout = "e-m:e-p270:32:32-p271:32:32-p272:64:64-i64:64-i128:128-f80:128-n8:16:32:64-S128"
target triple = "x86_64-pc-linux-gnu"

%struct._object = type { %union.anon, ptr }
%union.anon = type { i64 }
%struct.rangeobject = type { %struct._object, ptr, ptr, ptr, ptr }
%struct.anon = type { i32, i32 }

; Function Attrs: alwaysinline nounwind uwtable
define internal i32 @_Py_IsImmortal(ptr noundef %0) #2 {
  %2 = alloca ptr, align 8
  store ptr %0, ptr %2, align 8, !tbaa !18
  %3 = load ptr, ptr %2, align 8, !tbaa !18
  %4 = getelementptr inbounds nuw %struct._object, ptr %3, i32 0, i32 0
  %5 = getelementptr inbounds nuw %struct.anon, ptr %4, i32 0, i32 0
  %6 = load i32, ptr %5, align 8, !tbaa !32
  %7 = icmp slt i32 %6, 0
  %8 = zext i1 %7 to i32
  ret i32 %8
}

; Function Attrs: alwaysinline nounwind uwtable
define internal void @Py_DECREF(ptr noundef %0) #2 {
  %2 = alloca ptr, align 8
  store ptr %0, ptr %2, align 8, !tbaa !18
  %3 = load ptr, ptr %2, align 8, !tbaa !18
  %4 = call i32 @_Py_IsImmortal(ptr noundef %3)
  %5 = icmp ne i32 %4, 0
  br i1 %5, label %6, label %7

6:                                                ; preds = %1
  br label %16

7:                                                ; preds = %1
  %8 = load ptr, ptr %2, align 8, !tbaa !18
  %9 = getelementptr inbounds nuw %struct._object, ptr %8, i32 0, i32 0
  %10 = getelementptr inbounds nuw %struct.anon, ptr %9, i32 0, i32 0
  %11 = load i32, ptr %10, align 8, !tbaa !32
  %12 = add i32 %11, -1
  store i32 %12, ptr %10, align 8, !tbaa !32
  %13 = icmp eq i32 %12, 0
  br i1 %13, label %14, label %16

14:                                               ; preds = %7
  %15 = load ptr, ptr %2, align 8, !tbaa !18
  call void @_Py_Dealloc(ptr noundef %15)
  br label %16

16:                                               ; preds = %6, %14, %7
  ret void
}

; Function Attrs: nounwind uwtable
define internal void @range_dealloc(ptr noundef %0) #0 {
  %2 = alloca ptr, align 8
  store ptr %0, ptr %2, align 8, !tbaa !4
  %3 = load ptr, ptr %2, align 8, !tbaa !4
  %4 = getelementptr inbounds nuw %struct.rangeobject, ptr %3, i32 0, i32 1
  %5 = load ptr, ptr %4, align 8, !tbaa !8
  call void @Py_DECREF(ptr noundef %5)
  %6 = load ptr, ptr %2, align 8, !tbaa !4
  %7 = getelementptr inbounds nuw %struct.rangeobject, ptr %6, i32 0, i32 2
  %8 = load ptr, ptr %7, align 8, !tbaa !13
  call void @Py_DECREF(ptr noundef %8)
  %9 = load ptr, ptr %2, align 8, !tbaa !4
  %10 = getelementptr inbounds nuw %struct.rangeobject, ptr %9, i32 0, i32 3
  %11 = load ptr, ptr %10, align 8, !tbaa !14
  call void @Py_DECREF(ptr noundef %11)
  %12 = load ptr, ptr %2, align 8, !tbaa !4
  %13 = getelementptr inbounds nuw %struct.rangeobject, ptr %12, i32 0, i32 4
  %14 = load ptr, ptr %13, align 8, !tbaa !15
  call void @Py_DECREF(ptr noundef %14)
  %15 = load ptr, ptr %2, align 8, !tbaa !4
  call void @PyObject_Free(ptr noundef %15)
  ret void
}