; Function Attrs: nounwind uwtable
define internal void @range_dealloc(ptr noundef %0) #0 {
  %2 = getelementptr inbounds nuw i8, ptr %0, i64 16
  %3 = load ptr, ptr %2, align 8, !tbaa !4
  %4 = load i32, ptr %3, align 8, !tbaa !12
  %.not.i = icmp sgt i32 %4, -1
  br i1 %.not.i, label %5, label %Py_DECREF.exit

5:                                                ; preds = %1
  %6 = add nsw i32 %4, -1
  store i32 %6, ptr %3, align 8, !tbaa !12
  %7 = icmp eq i32 %6, 0
  br i1 %7, label %8, label %Py_DECREF.exit

8:                                                ; preds = %5
  tail call void @_Py_Dealloc(ptr noundef nonnull %3) #6
  br label %Py_DECREF.exit

Py_DECREF.exit:                                   ; preds = %1, %5, %8
  %9 = getelementptr inbounds nuw i8, ptr %0, i64 24
  %10 = load ptr, ptr %9, align 8, !tbaa !13
  %11 = load i32, ptr %10, align 8, !tbaa !12
  %.not.i5 = icmp sgt i32 %11, -1
  br i1 %.not.i5, label %12, label %Py_DECREF.exit6

12:                                               ; preds = %Py_DECREF.exit
  %13 = add nsw i32 %11, -1
  store i32 %13, ptr %10, align 8, !tbaa !12
  %14 = icmp eq i32 %13, 0
  br i1 %14, label %15, label %Py_DECREF.exit6

15:                                               ; preds = %12
  tail call void @_Py_Dealloc(ptr noundef nonnull %10) #6
  br label %Py_DECREF.exit6

Py_DECREF.exit6:                                  ; preds = %Py_DECREF.exit, %12, %15
  %16 = getelementptr inbounds nuw i8, ptr %0, i64 32
  %17 = load ptr, ptr %16, align 8, !tbaa !14
  %18 = load i32, ptr %17, align 8, !tbaa !12
  %.not.i7 = icmp sgt i32 %18, -1
  br i1 %.not.i7, label %19, label %Py_DECREF.exit8

19:                                               ; preds = %Py_DECREF.exit6
  %20 = add nsw i32 %18, -1
  store i32 %20, ptr %17, align 8, !tbaa !12
  %21 = icmp eq i32 %20, 0
  br i1 %21, label %22, label %Py_DECREF.exit8

22:                                               ; preds = %19
  tail call void @_Py_Dealloc(ptr noundef nonnull %17) #6
  br label %Py_DECREF.exit8

Py_DECREF.exit8:                                  ; preds = %Py_DECREF.exit6, %19, %22
  %23 = getelementptr inbounds nuw i8, ptr %0, i64 40
  %24 = load ptr, ptr %23, align 8, !tbaa !15
  %25 = load i32, ptr %24, align 8, !tbaa !12
  %.not.i9 = icmp sgt i32 %25, -1
  br i1 %.not.i9, label %26, label %Py_DECREF.exit10

26:                                               ; preds = %Py_DECREF.exit8
  %27 = add nsw i32 %25, -1
  store i32 %27, ptr %24, align 8, !tbaa !12
  %28 = icmp eq i32 %27, 0
  br i1 %28, label %29, label %Py_DECREF.exit10

29:                                               ; preds = %26
  tail call void @_Py_Dealloc(ptr noundef nonnull %24) #6
  br label %Py_DECREF.exit10

Py_DECREF.exit10:                                 ; preds = %Py_DECREF.exit8, %26, %29
  tail call void @PyObject_Free(ptr noundef nonnull %0) #6
  ret void
}